Certificate:
    Data:
        Version: 3 (0x2)
        Serial Number: 1 (0x1)
        Signature Algorithm: sha256WithRSAEncryption
        Issuer: C=FR, ST=Radius, L=Somewhere, O=Example Inc./emailAddress=admin@example.org, CN=Example Certificate Authority
        Validity
            Not Before: Jul 31 14:07:39 2024 GMT
            Not After : Sep 29 14:07:39 2024 GMT
        Subject: C=FR, ST=Radius, O=Example Inc., CN=Example Server Certificate/emailAddress=admin@example.org
        Subject Public Key Info:
            Public Key Algorithm: rsaEncryption
                Public-Key: (2048 bit)
                Modulus:
                    00:cd:4c:57:23:05:01:2b:2e:61:24:d0:9d:69:86:
                    35:1a:a4:7d:8f:ac:d4:37:dc:6c:2d:59:7d:1e:09:
                    a0:74:d9:b9:b9:76:a3:dc:d0:b4:f1:bf:62:95:1a:
                    f7:55:14:f3:b1:ee:20:0c:46:c8:93:fd:e0:2c:62:
                    86:99:62:60:74:ea:d8:43:e9:1c:9e:39:51:94:a3:
                    c9:18:93:e8:c2:6c:e0:ba:00:be:f8:10:0c:16:b5:
                    c7:01:7e:56:d9:f8:19:46:b8:1e:2e:f4:d9:40:f8:
                    f8:03:55:b3:c9:06:94:3e:9f:6b:93:9f:00:82:8f:
                    be:89:2b:36:76:b3:d0:c3:92:36:a1:05:84:80:c6:
                    d6:bd:9a:f1:db:e9:30:99:4d:bb:ef:63:c8:f0:7e:
                    6a:fb:59:6c:ee:24:d1:5e:b8:f1:fb:f6:2d:90:ea:
                    be:eb:ba:d6:03:99:32:52:b6:50:95:d2:94:ec:e6:
                    72:da:39:c2:1b:79:dc:42:25:55:53:b4:7d:ed:c8:
                    a7:dd:c4:97:7c:15:0e:f9:bc:b0:c0:5f:80:0f:03:
                    91:a7:77:44:18:e9:0e:0e:8d:87:8a:8a:5e:78:9a:
                    36:9d:e5:93:7f:b6:ab:55:fe:2f:47:f3:6d:c1:2a:
                    6a:e1:8c:e8:6e:62:0d:1c:07:74:bb:8c:a6:5a:c2:
                    95:95
                Exponent: 65537 (0x10001)
        X509v3 extensions:
            X509v3 Extended Key Usage: 
                TLS Web Server Authentication
            X509v3 CRL Distribution Points: 
                Full Name:
                  URI:http://www.example.com/example_ca.crl
            X509v3 Certificate Policies: 
                Policy: 1.3.6.1.4.1.40808.1.3.2
            X509v3 Subject Key Identifier: 
                0C:7A:1E:25:E6:6A:37:82:66:83:50:18:03:8C:EF:5D:7E:CE:9A:58
            X509v3 Authority Key Identifier: 
                20:EC:0A:7B:2A:C5:A3:E0:95:68:E5:D8:8E:E7:70:1B:1F:A8:65:94
    Signature Algorithm: sha256WithRSAEncryption
    Signature Value:
        73:d3:e9:3c:a0:1a:34:11:43:69:26:08:55:ea:51:c6:59:fc:
        2d:32:03:4c:27:cd:1d:6c:84:5e:23:91:9e:b3:f2:8e:ec:8f:
        37:5a:8a:3c:55:43:25:a7:48:1a:aa:88:f2:a9:7d:af:7f:d1:
        73:d1:38:94:8b:5b:e9:30:af:7e:d0:23:8f:9e:5d:b6:fc:dd:
        b0:05:2d:e7:e9:2f:5f:1d:72:2d:a7:c1:64:d7:ae:45:38:25:
        00:39:ba:1a:22:ab:01:c3:8b:be:d8:15:40:41:88:e8:91:04:
        af:f8:03:cc:35:fc:dc:f9:82:b8:2d:d3:09:e9:dc:0a:8a:ff:
        2d:09:1c:ee:85:47:6c:0f:ca:09:77:b3:20:97:8c:f8:4a:c8:
        f3:3e:5f:2c:22:ed:b8:e2:ca:67:94:5a:a3:fc:09:04:fd:f5:
        47:c7:aa:c7:ff:6e:75:16:7c:59:54:9e:ba:0a:51:c1:05:2c:
        e9:26:75:5f:95:c5:43:ca:e9:8d:3a:f0:be:61:bb:82:52:e5:
        03:de:2a:16:a4:17:cd:02:ea:94:ae:fc:e7:9b:2e:3c:64:23:
        f8:e6:41:47:4b:52:71:6c:b4:9c:24:4c:5b:93:c6:78:b0:07:
        32:0d:11:7e:9f:64:9e:20:a7:4c:e8:a0:ff:61:0d:0f:7d:26:
        4d:64:b3:60
-----BEGIN CERTIFICATE-----
MIIENjCCAx6gAwIBAgIBATANBgkqhkiG9w0BAQsFADCBkzELMAkGA1UEBhMCRlIx
DzANBgNVBAgMBlJhZGl1czESMBAGA1UEBwwJU29tZXdoZXJlMRUwEwYDVQQKDAxF
eGFtcGxlIEluYy4xIDAeBgkqhkiG9w0BCQEWEWFkbWluQGV4YW1wbGUub3JnMSYw
JAYDVQQDDB1FeGFtcGxlIENlcnRpZmljYXRlIEF1dGhvcml0eTAeFw0yNDA3MzEx
NDA3MzlaFw0yNDA5MjkxNDA3MzlaMHwxCzAJBgNVBAYTAkZSMQ8wDQYDVQQIDAZS
YWRpdXMxFTATBgNVBAoMDEV4YW1wbGUgSW5jLjEjMCEGA1UEAwwaRXhhbXBsZSBT
ZXJ2ZXIgQ2VydGlmaWNhdGUxIDAeBgkqhkiG9w0BCQEWEWFkbWluQGV4YW1wbGUu
b3JnMIIBIjANBgkqhkiG9w0BAQEFAAOCAQ8AMIIBCgKCAQEAzUxXIwUBKy5hJNCd
aYY1GqR9j6zUN9xsLVl9HgmgdNm5uXaj3NC08b9ilRr3VRTzse4gDEbIk/3gLGKG
mWJgdOrYQ+kcnjlRlKPJGJPowmzgugC++BAMFrXHAX5W2fgZRrgeLvTZQPj4A1Wz
yQaUPp9rk58Ago++iSs2drPQw5I2oQWEgMbWvZrx2+kwmU2772PI8H5q+1ls7iTR
Xrjx+/YtkOq+67rWA5kyUrZQldKU7OZy2jnCG3ncQiVVU7R97cin3cSXfBUO+byw
wF+ADwORp3dEGOkODo2HiopeeJo2neWTf7arVf4vR/NtwSpq4YzobmINHAd0u4ym
WsKVlQIDAQABo4GqMIGnMBMGA1UdJQQMMAoGCCsGAQUFBwMBMDYGA1UdHwQvMC0w
K6ApoCeGJWh0dHA6Ly93d3cuZXhhbXBsZS5jb20vZXhhbXBsZV9jYS5jcmwwGAYD
VR0gBBEwDzANBgsrBgEEAYK+aAEDAjAdBgNVHQ4EFgQUDHoeJeZqN4Jmg1AYA4zv
XX7OmlgwHwYDVR0jBBgwFoAUIOwKeyrFo+CVaOXYjudwGx+oZZQwDQYJKoZIhvcN
AQELBQADggEBAHPT6TygGjQRQ2kmCFXqUcZZ/C0yA0wnzR1shF4jkZ6z8o7sjzda
ijxVQyWnSBqqiPKpfa9/0XPROJSLW+kwr37QI4+eXbb83bAFLefpL18dci2nwWTX
rkU4JQA5uhoiqwHDi77YFUBBiOiRBK/4A8w1/Nz5grgt0wnp3AqK/y0JHO6FR2wP
ygl3syCXjPhKyPM+Xywi7bjiymeUWqP8CQT99UfHqsf/bnUWfFlUnroKUcEFLOkm
dV+VxUPK6Y068L5hu4JS5QPeKhakF80C6pSu/OebLjxkI/jmQUdLUnFstJwkTFuT
xniwBzINEX6fZJ4gp0zooP9hDQ99Jk1ks2A=
-----END CERTIFICATE-----
