Certificate:
    Data:
        Version: 3 (0x2)
        Serial Number: 2 (0x2)
        Signature Algorithm: sha256WithRSAEncryption
        Issuer: C=FR, ST=Radius, L=Somewhere, O=Example Inc./emailAddress=admin@example.org, CN=Example Certificate Authority
        Validity
            Not Before: Jul 31 14:07:42 2024 GMT
            Not After : Sep 29 14:07:42 2024 GMT
        Subject: C=FR, ST=Radius, O=Example Inc., CN=user@example.org/emailAddress=user@example.org
        Subject Public Key Info:
            Public Key Algorithm: rsaEncryption
                Public-Key: (2048 bit)
                Modulus:
                    00:ab:da:e4:03:e6:a7:72:38:59:5d:f0:96:fc:94:
                    86:d6:fb:62:ae:0d:27:de:e9:2c:25:c6:a2:7a:e9:
                    cf:b7:22:c5:2c:ec:fb:65:eb:f1:5a:43:cc:df:7e:
                    24:07:23:05:1f:7e:30:19:7e:f7:2c:f8:8c:3c:12:
                    db:ce:06:87:3a:24:08:dd:22:cc:ad:c5:43:72:1c:
                    53:de:ef:a8:d0:98:de:35:fa:b7:84:7f:ac:f0:fd:
                    b5:9a:96:24:cd:50:79:b8:13:c5:c3:cc:ea:ef:77:
                    44:4d:79:7c:dd:dc:a3:2f:17:df:54:9a:18:4e:2d:
                    c3:d7:be:0e:18:c3:ee:57:93:42:e8:4f:93:51:97:
                    b4:63:15:52:e0:80:d2:ae:3b:31:fc:6b:f0:63:ed:
                    18:33:fd:4f:ca:40:7b:63:02:93:ff:93:48:56:a0:
                    72:00:dd:ce:fa:b5:49:df:17:3d:ae:d1:48:3e:25:
                    2c:2a:ea:af:7f:ab:51:d3:58:65:36:87:9d:af:01:
                    3d:99:7d:fb:8b:fd:0c:f5:c9:e1:28:a0:bf:2f:74:
                    5c:8c:d7:4b:54:d0:59:50:0c:9d:4d:ae:9c:71:76:
                    19:5f:f7:84:92:f2:17:74:45:3f:ad:55:70:52:56:
                    8e:bd:05:1e:b2:7e:0d:80:6a:72:56:52:2e:26:18:
                    28:85
                Exponent: 65537 (0x10001)
        X509v3 extensions:
            X509v3 Extended Key Usage: 
                TLS Web Client Authentication
            X509v3 CRL Distribution Points: 
                Full Name:
                  URI:http://www.example.com/example_ca.crl
            X509v3 Subject Key Identifier: 
                4D:50:ED:3B:92:E8:15:58:B1:9C:41:2A:29:F0:D6:8D:EC:05:D5:9F
            X509v3 Authority Key Identifier: 
                20:EC:0A:7B:2A:C5:A3:E0:95:68:E5:D8:8E:E7:70:1B:1F:A8:65:94
    Signature Algorithm: sha256WithRSAEncryption
    Signature Value:
        86:18:f0:5a:45:c9:ae:ec:12:2c:e8:73:36:24:3a:5f:a3:0a:
        34:c3:6a:33:72:8b:e8:74:a0:bb:a7:bb:a4:33:56:b2:02:c4:
        a9:76:d5:14:d9:42:05:9b:a6:51:bd:75:d2:3d:dc:bc:de:f0:
        46:3c:78:23:97:7d:db:e8:6a:31:78:b1:ae:52:22:12:ca:e5:
        79:34:ad:9e:66:96:cf:06:52:12:b8:36:f6:98:bf:c7:27:6b:
        07:5d:24:76:97:f5:f3:bb:67:8e:18:cb:48:b6:63:8e:d3:d4:
        c9:e9:5e:0c:ab:b0:f9:2b:8a:e9:d7:7a:ed:29:4e:80:91:cc:
        4b:fa:51:29:47:7a:f6:f9:e8:50:3d:ad:b3:90:31:08:23:79:
        4b:23:14:21:44:78:6e:95:5b:19:b0:c6:4a:63:12:f3:2a:fb:
        5f:23:e1:ff:46:9f:57:5a:68:62:c7:ea:d0:e7:5f:81:af:ec:
        9a:f2:ee:26:68:0c:f0:f3:aa:61:93:c9:81:f2:f7:f6:e0:73:
        40:f2:d9:8a:a3:96:fc:e0:14:7c:28:b5:3f:70:9d:5a:f6:42:
        a1:72:07:9e:ab:d5:61:e5:27:80:0f:b7:92:1e:7a:c9:51:66:
        70:4a:6b:87:24:e3:c4:d1:7e:6d:a9:b9:2d:a8:21:74:96:2f:
        e9:a0:8f:dd
-----BEGIN CERTIFICATE-----
MIIEETCCAvmgAwIBAgIBAjANBgkqhkiG9w0BAQsFADCBkzELMAkGA1UEBhMCRlIx
DzANBgNVBAgMBlJhZGl1czESMBAGA1UEBwwJU29tZXdoZXJlMRUwEwYDVQQKDAxF
eGFtcGxlIEluYy4xIDAeBgkqhkiG9w0BCQEWEWFkbWluQGV4YW1wbGUub3JnMSYw
JAYDVQQDDB1FeGFtcGxlIENlcnRpZmljYXRlIEF1dGhvcml0eTAeFw0yNDA3MzEx
NDA3NDJaFw0yNDA5MjkxNDA3NDJaMHExCzAJBgNVBAYTAkZSMQ8wDQYDVQQIDAZS
YWRpdXMxFTATBgNVBAoMDEV4YW1wbGUgSW5jLjEZMBcGA1UEAwwQdXNlckBleGFt
cGxlLm9yZzEfMB0GCSqGSIb3DQEJARYQdXNlckBleGFtcGxlLm9yZzCCASIwDQYJ
KoZIhvcNAQEBBQADggEPADCCAQoCggEBAKva5APmp3I4WV3wlvyUhtb7Yq4NJ97p
LCXGonrpz7cixSzs+2Xr8VpDzN9+JAcjBR9+MBl+9yz4jDwS284GhzokCN0izK3F
Q3IcU97vqNCY3jX6t4R/rPD9tZqWJM1QebgTxcPM6u93RE15fN3coy8X31SaGE4t
w9e+DhjD7leTQuhPk1GXtGMVUuCA0q47Mfxr8GPtGDP9T8pAe2MCk/+TSFagcgDd
zvq1Sd8XPa7RSD4lLCrqr3+rUdNYZTaHna8BPZl9+4v9DPXJ4Sigvy90XIzXS1TQ
WVAMnU2unHF2GV/3hJLyF3RFP61VcFJWjr0FHrJ+DYBqclZSLiYYKIUCAwEAAaOB
kDCBjTATBgNVHSUEDDAKBggrBgEFBQcDAjA2BgNVHR8ELzAtMCugKaAnhiVodHRw
Oi8vd3d3LmV4YW1wbGUuY29tL2V4YW1wbGVfY2EuY3JsMB0GA1UdDgQWBBRNUO07
kugVWLGcQSop8NaN7AXVnzAfBgNVHSMEGDAWgBQg7Ap7KsWj4JVo5diO53AbH6hl
lDANBgkqhkiG9w0BAQsFAAOCAQEAhhjwWkXJruwSLOhzNiQ6X6MKNMNqM3KL6HSg
u6e7pDNWsgLEqXbVFNlCBZumUb110j3cvN7wRjx4I5d92+hqMXixrlIiEsrleTSt
nmaWzwZSErg29pi/xydrB10kdpf187tnjhjLSLZjjtPUyeleDKuw+SuK6dd67SlO
gJHMS/pRKUd69vnoUD2ts5AxCCN5SyMUIUR4bpVbGbDGSmMS8yr7XyPh/0afV1po
Ysfq0Odfga/smvLuJmgM8POqYZPJgfL39uBzQPLZiqOW/OAUfCi1P3CdWvZCoXIH
nqvVYeUngA+3kh56yVFmcEprhyTjxNF+bam5LaghdJYv6aCP3Q==
-----END CERTIFICATE-----
